; ModuleID = '58/18.c'
source_filename = "58/18.c"
target datalayout = "e-m:e-p270:32:32-p271:32:32-p272:64:64-i64:64-f80:128-n8:16:32:64-S128"
target triple = "x86_64-pc-linux-gnu"

@.str = private unnamed_addr constant [3 x i8] c"%d\00", align 1
@.str.1 = private unnamed_addr constant [5 x i8] c"%d%s\00", align 1
@.str.2 = private unnamed_addr constant [1 x i8] zeroinitializer, align 1
@.str.3 = private unnamed_addr constant [2 x i8] c"\0A\00", align 1

; Function Attrs: noinline nounwind uwtable
define dso_local i32 @main() #0 {
  %1 = alloca i32, align 4
  %2 = alloca i32, align 4
  %3 = alloca i32, align 4
  %4 = alloca i32, align 4
  %5 = alloca i32, align 4
  %6 = alloca i8*, align 8
  %7 = alloca i8*, align 8
  store i32 0, i32* %1, align 4
  %8 = call noalias i8* @malloc(i64 100) #3
  store i8* %8, i8** %7, align 8
  store i8* %8, i8** %6, align 8
  %9 = call i32 (i8*, ...) @__isoc99_scanf(i8* getelementptr inbounds ([3 x i8], [3 x i8]* @.str, i64 0, i64 0), i32* %2)
  %10 = load i8*, i8** %6, align 8
  %11 = call i32 (i8*, ...) bitcast (i32 (...)* @gets to i32 (i8*, ...)*)(i8* %10)
  store i32 0, i32* %3, align 4
  br label %12

12:                                               ; preds = %147, %0
  %13 = load i32, i32* %3, align 4
  %14 = load i32, i32* %2, align 4
  %15 = icmp slt i32 %13, %14
  br i1 %15, label %16, label %150

16:                                               ; preds = %12
  %17 = load i8*, i8** %6, align 8
  %18 = call i32 (i8*, ...) bitcast (i32 (...)* @gets to i32 (i8*, ...)*)(i8* %17)
  store i32 1, i32* %5, align 4
  %19 = load i8*, i8** %7, align 8
  store i8* %19, i8** %6, align 8
  store i32 0, i32* %4, align 4
  br label %20

20:                                               ; preds = %135, %16
  %21 = load i8*, i8** %6, align 8
  %22 = load i32, i32* %4, align 4
  %23 = sext i32 %22 to i64
  %24 = getelementptr inbounds i8, i8* %21, i64 %23
  %25 = load i8, i8* %24, align 1
  %26 = sext i8 %25 to i32
  %27 = icmp ne i32 %26, 0
  br i1 %27, label %28, label %138

28:                                               ; preds = %20
  %29 = load i32, i32* %4, align 4
  %30 = icmp eq i32 %29, 0
  br i1 %30, label %31, label %73

31:                                               ; preds = %28
  %32 = load i8*, i8** %6, align 8
  %33 = load i32, i32* %4, align 4
  %34 = sext i32 %33 to i64
  %35 = getelementptr inbounds i8, i8* %32, i64 %34
  %36 = load i8, i8* %35, align 1
  %37 = sext i8 %36 to i32
  %38 = icmp slt i32 %37, 97
  br i1 %38, label %47, label %39

39:                                               ; preds = %31
  %40 = load i8*, i8** %6, align 8
  %41 = load i32, i32* %4, align 4
  %42 = sext i32 %41 to i64
  %43 = getelementptr inbounds i8, i8* %40, i64 %42
  %44 = load i8, i8* %43, align 1
  %45 = sext i8 %44 to i32
  %46 = icmp sgt i32 %45, 122
  br i1 %46, label %47, label %72

47:                                               ; preds = %39, %31
  %48 = load i8*, i8** %6, align 8
  %49 = load i32, i32* %4, align 4
  %50 = sext i32 %49 to i64
  %51 = getelementptr inbounds i8, i8* %48, i64 %50
  %52 = load i8, i8* %51, align 1
  %53 = sext i8 %52 to i32
  %54 = icmp slt i32 %53, 65
  br i1 %54, label %63, label %55

55:                                               ; preds = %47
  %56 = load i8*, i8** %6, align 8
  %57 = load i32, i32* %4, align 4
  %58 = sext i32 %57 to i64
  %59 = getelementptr inbounds i8, i8* %56, i64 %58
  %60 = load i8, i8* %59, align 1
  %61 = sext i8 %60 to i32
  %62 = icmp sgt i32 %61, 90
  br i1 %62, label %63, label %72

63:                                               ; preds = %55, %47
  %64 = load i8*, i8** %6, align 8
  %65 = load i32, i32* %4, align 4
  %66 = sext i32 %65 to i64
  %67 = getelementptr inbounds i8, i8* %64, i64 %66
  %68 = load i8, i8* %67, align 1
  %69 = sext i8 %68 to i32
  %70 = icmp ne i32 %69, 95
  br i1 %70, label %71, label %72

71:                                               ; preds = %63
  store i32 0, i32* %5, align 4
  br label %138

72:                                               ; preds = %63, %55, %39
  br label %73

73:                                               ; preds = %72, %28
  %74 = load i32, i32* %4, align 4
  %75 = icmp ne i32 %74, 0
  br i1 %75, label %76, label %134

76:                                               ; preds = %73
  %77 = load i8*, i8** %6, align 8
  %78 = load i32, i32* %4, align 4
  %79 = sext i32 %78 to i64
  %80 = getelementptr inbounds i8, i8* %77, i64 %79
  %81 = load i8, i8* %80, align 1
  %82 = sext i8 %81 to i32
  %83 = icmp slt i32 %82, 97
  br i1 %83, label %92, label %84

84:                                               ; preds = %76
  %85 = load i8*, i8** %6, align 8
  %86 = load i32, i32* %4, align 4
  %87 = sext i32 %86 to i64
  %88 = getelementptr inbounds i8, i8* %85, i64 %87
  %89 = load i8, i8* %88, align 1
  %90 = sext i8 %89 to i32
  %91 = icmp sgt i32 %90, 122
  br i1 %91, label %92, label %133

92:                                               ; preds = %84, %76
  %93 = load i8*, i8** %6, align 8
  %94 = load i32, i32* %4, align 4
  %95 = sext i32 %94 to i64
  %96 = getelementptr inbounds i8, i8* %93, i64 %95
  %97 = load i8, i8* %96, align 1
  %98 = sext i8 %97 to i32
  %99 = icmp slt i32 %98, 65
  br i1 %99, label %108, label %100

100:                                              ; preds = %92
  %101 = load i8*, i8** %6, align 8
  %102 = load i32, i32* %4, align 4
  %103 = sext i32 %102 to i64
  %104 = getelementptr inbounds i8, i8* %101, i64 %103
  %105 = load i8, i8* %104, align 1
  %106 = sext i8 %105 to i32
  %107 = icmp sgt i32 %106, 90
  br i1 %107, label %108, label %133

108:                                              ; preds = %100, %92
  %109 = load i8*, i8** %6, align 8
  %110 = load i32, i32* %4, align 4
  %111 = sext i32 %110 to i64
  %112 = getelementptr inbounds i8, i8* %109, i64 %111
  %113 = load i8, i8* %112, align 1
  %114 = sext i8 %113 to i32
  %115 = icmp ne i32 %114, 95
  br i1 %115, label %116, label %133

116:                                              ; preds = %108
  %117 = load i8*, i8** %6, align 8
  %118 = load i32, i32* %4, align 4
  %119 = sext i32 %118 to i64
  %120 = getelementptr inbounds i8, i8* %117, i64 %119
  %121 = load i8, i8* %120, align 1
  %122 = sext i8 %121 to i32
  %123 = icmp slt i32 %122, 48
  br i1 %123, label %132, label %124

124:                                              ; preds = %116
  %125 = load i8*, i8** %6, align 8
  %126 = load i32, i32* %4, align 4
  %127 = sext i32 %126 to i64
  %128 = getelementptr inbounds i8, i8* %125, i64 %127
  %129 = load i8, i8* %128, align 1
  %130 = sext i8 %129 to i32
  %131 = icmp sgt i32 %130, 57
  br i1 %131, label %132, label %133

132:                                              ; preds = %124, %116
  store i32 0, i32* %5, align 4
  br label %138

133:                                              ; preds = %124, %108, %100, %84
  br label %134

134:                                              ; preds = %133, %73
  br label %135

135:                                              ; preds = %134
  %136 = load i32, i32* %4, align 4
  %137 = add nsw i32 %136, 1
  store i32 %137, i32* %4, align 4
  br label %20

138:                                              ; preds = %132, %71, %20
  %139 = load i32, i32* %5, align 4
  %140 = load i32, i32* %3, align 4
  %141 = load i32, i32* %2, align 4
  %142 = sub nsw i32 %141, 1
  %143 = icmp eq i32 %140, %142
  %144 = zext i1 %143 to i64
  %145 = select i1 %143, i8* getelementptr inbounds ([1 x i8], [1 x i8]* @.str.2, i64 0, i64 0), i8* getelementptr inbounds ([2 x i8], [2 x i8]* @.str.3, i64 0, i64 0)
  %146 = call i32 (i8*, ...) @printf(i8* getelementptr inbounds ([5 x i8], [5 x i8]* @.str.1, i64 0, i64 0), i32 %139, i8* %145)
  br label %147

147:                                              ; preds = %138
  %148 = load i32, i32* %3, align 4
  %149 = add nsw i32 %148, 1
  store i32 %149, i32* %3, align 4
  br label %12

150:                                              ; preds = %12
  %151 = load i32, i32* %1, align 4
  ret i32 %151
}

; Function Attrs: nounwind
declare dso_local noalias i8* @malloc(i64) #1

declare dso_local i32 @__isoc99_scanf(i8*, ...) #2

declare dso_local i32 @gets(...) #2

declare dso_local i32 @printf(i8*, ...) #2


!llvm.module.flags = !{!0}
!llvm.ident = !{!1}

!0 = !{i32 1, !"wchar_size", i32 4}
!1 = !{!"clang version 10.0.0-4ubuntu1 "}
